; Function Attrs: mustprogress nofree norecurse nosync nounwind willreturn memory(argmem: read) uwtable
define noundef nonnull align 8 dereferenceable(32) ptr @_ZNK10open_spiel13GameParameter18value_with_defaultIRKNSt7__cxx1112basic_stringIcSt11char_traitsIcESaIcEEEEET_SA_(ptr noundef nonnull readonly align 8 dereferenceable(108) %0, ptr noundef nonnull readnone align 8 dereferenceable(32) %1) local_unnamed_addr #6 align 2 personality ptr @__gxx_personality_v0 {
_ZNK10open_spiel13GameParameter12string_valueB5cxx11Ev.exit:
  %2 = getelementptr inbounds nuw i8, ptr %0, i64 104
  %3 = load i32, ptr %2, align 8
  %4 = icmp eq i32 %3, 2
  %5 = getelementptr inbounds nuw i8, ptr %0, i64 16
  %spec.select = select i1 %4, ptr %5, ptr %1
  ret ptr %spec.select
}